; Function Attrs: mustprogress uwtable
define void @_ZN6icu_757UVector15removeElementAtEi(ptr nocapture noundef nonnull align 8 dereferenceable(40) %this, i32 noundef %index) local_unnamed_addr #1 align 2 {
entry:
  %cmp.i = icmp sgt i32 %index, -1
  br i1 %cmp.i, label %land.lhs.true.i, label %if.end

land.lhs.true.i:                                  ; preds = %entry
  %count.i = getelementptr inbounds i8, ptr %this, i64 8
  %0 = load i32, ptr %count.i, align 8
  %cmp2.i = icmp sgt i32 %0, %index
  br i1 %cmp2.i, label %if.then.i, label %if.end

if.then.i:                                        ; preds = %land.lhs.true.i
  %elements.i = getelementptr inbounds i8, ptr %this, i64 16
  %1 = load ptr, ptr %elements.i, align 8
  %idxprom.i = zext nneg i32 %index to i64
  %arrayidx.i = getelementptr inbounds %union.UElement, ptr %1, i64 %idxprom.i
  %2 = load ptr, ptr %arrayidx.i, align 8
  %sub7.i = add nsw i32 %0, -1
  %cmp48.i = icmp ugt i32 %sub7.i, %index
  br i1 %cmp48.i, label %for.body.i, label %_ZN6icu_757UVector15orphanElementAtEi.exit

for.body.i:                                       ; preds = %if.then.i, %for.body.i
  %indvars.iv.i = phi i64 [ %indvars.iv.next.i, %for.body.i ], [ %idxprom.i, %if.then.i ]
  %3 = load ptr, ptr %elements.i, align 8
  %indvars.iv.next.i = add nuw nsw i64 %indvars.iv.i, 1
  %arrayidx7.i = getelementptr inbounds %union.UElement, ptr %3, i64 %indvars.iv.next.i
  %arrayidx10.i = getelementptr inbounds %union.UElement, ptr %3, i64 %indvars.iv.i
  %4 = load i64, ptr %arrayidx7.i, align 8
  store i64 %4, ptr %arrayidx10.i, align 8
  %5 = load i32, ptr %count.i, align 8
  %sub.i = add nsw i32 %5, -1
  %6 = trunc i64 %indvars.iv.next.i to i32
  %cmp4.i = icmp sgt i32 %sub.i, %6
  br i1 %cmp4.i, label %for.body.i, label %_ZN6icu_757UVector15orphanElementAtEi.exit, !llvm.loop !8

_ZN6icu_757UVector15orphanElementAtEi.exit:       ; preds = %for.body.i, %if.then.i
  %sub.lcssa.i = phi i32 [ %sub7.i, %if.then.i ], [ %sub.i, %for.body.i ]
  store i32 %sub.lcssa.i, ptr %count.i, align 8
  %cmp.not = icmp eq ptr %2, null
  br i1 %cmp.not, label %if.end, label %land.lhs.true

land.lhs.true:                                    ; preds = %_ZN6icu_757UVector15orphanElementAtEi.exit
  %deleter = getelementptr inbounds i8, ptr %this, i64 24
  %7 = load ptr, ptr %deleter, align 8
  %cmp2.not = icmp eq ptr %7, null
  br i1 %cmp2.not, label %if.end, label %if.then

if.then:                                          ; preds = %land.lhs.true
  tail call void %7(ptr noundef nonnull %2)
  br label %if.end

if.end:                                           ; preds = %entry, %land.lhs.true.i, %if.then, %land.lhs.true, %_ZN6icu_757UVector15orphanElementAtEi.exit
  ret void
}